; Function Attrs: nounwind uwtable
define ptr @l_Array_foldlMUnsafe_fold___at_Lean_Compiler_LCNF_Closure_run___spec__2(ptr readnone captures(none) %0, ptr noundef %1, ptr noundef readonly captures(none) %2, i64 noundef %3, i64 noundef %4, ptr noundef %5) local_unnamed_addr #1 {
  %.not46 = icmp eq i64 %3, %4
  br i1 %.not46, label %._crit_edge, label %.lr.ph

.lr.ph:                                           ; preds = %6
  %7 = getelementptr inbounds nuw i8, ptr %2, i64 24
  br label %8

8:                                                ; preds = %.lr.ph, %lean_dec.exit
  %.02348 = phi i64 [ %3, %.lr.ph ], [ %20, %lean_dec.exit ]
  %.02547 = phi ptr [ %5, %.lr.ph ], [ %.227, %lean_dec.exit ]
  %9 = getelementptr inbounds nuw [0 x ptr], ptr %7, i64 0, i64 %.02348
  %10 = load ptr, ptr %9, align 8, !tbaa !9
  %11 = ptrtoint ptr %10 to i64
  %12 = and i64 %11, 1
  %.not.i34 = icmp eq i64 %12, 0
  br i1 %.not.i34, label %13, label %lean_array_uget.exit

13:                                               ; preds = %8
  %.val.i.i = load i32, ptr %10, align 4, !tbaa !4
  %14 = icmp sgt i32 %.val.i.i, 0
  br i1 %14, label %15, label %17, !prof !11

15:                                               ; preds = %13
  %16 = add nuw i32 %.val.i.i, 1
  store i32 %16, ptr %10, align 4, !tbaa !4
  br label %lean_array_uget.exit

17:                                               ; preds = %13
  %.not.i.i = icmp eq i32 %.val.i.i, 0
  br i1 %.not.i.i, label %lean_array_uget.exit, label %18

18:                                               ; preds = %17
  tail call void @lean_inc_ref_cold(ptr noundef nonnull %10) #4
  br label %lean_array_uget.exit

lean_array_uget.exit:                             ; preds = %8, %15, %17, %18
  %19 = tail call ptr @l_Lean_Compiler_LCNF_CodeDecl_fvarId(ptr noundef %10) #4
  %20 = add i64 %.02348, 1
  %21 = tail call ptr @l_Lean_RBNode_findCore___at___private_Lean_Meta_FunInfo_0__Lean_Meta_getFunInfoAux___spec__2(ptr noundef %1, ptr noundef %19) #4
  %22 = ptrtoint ptr %19 to i64
  %23 = and i64 %22, 1
  %.not44 = icmp eq i64 %23, 0
  br i1 %.not44, label %24, label %lean_dec.exit29

24:                                               ; preds = %lean_array_uget.exit
  %25 = load i32, ptr %19, align 4, !tbaa !4
  %26 = icmp sgt i32 %25, 1
  br i1 %26, label %27, label %29, !prof !11

27:                                               ; preds = %24
  %28 = add nsw i32 %25, -1
  store i32 %28, ptr %19, align 4, !tbaa !4
  br label %lean_dec.exit29

29:                                               ; preds = %24
  %.not.i = icmp eq i32 %25, 0
  br i1 %.not.i, label %lean_dec.exit29, label %30

30:                                               ; preds = %29
  tail call void @lean_dec_ref_cold(ptr noundef nonnull %19) #4
  br label %lean_dec.exit29

lean_dec.exit29:                                  ; preds = %30, %29, %27, %lean_array_uget.exit
  %31 = ptrtoint ptr %21 to i64
  %32 = and i64 %31, 1
  %.not.i35 = icmp eq i64 %32, 0
  br i1 %.not.i35, label %lean_obj_tag.exit.thread, label %lean_obj_tag.exit

lean_obj_tag.exit:                                ; preds = %lean_dec.exit29
  %33 = and i64 %31, 8589934590
  %34 = icmp eq i64 %33, 0
  br i1 %34, label %37, label %lean_dec.exit28

lean_obj_tag.exit.thread:                         ; preds = %lean_dec.exit29
  %35 = getelementptr i8, ptr %21, i64 4
  %.val.i = load i32, ptr %35, align 4
  %36 = icmp ult i32 %.val.i, 16777216
  br i1 %36, label %37, label %.thread

37:                                               ; preds = %lean_obj_tag.exit.thread, %lean_obj_tag.exit
  %38 = tail call ptr @lean_array_push(ptr noundef %.02547, ptr noundef %10) #4
  br label %lean_dec.exit

.thread:                                          ; preds = %lean_obj_tag.exit.thread
  %39 = load i32, ptr %21, align 4, !tbaa !4
  %40 = icmp sgt i32 %39, 1
  br i1 %40, label %41, label %43, !prof !11

41:                                               ; preds = %.thread
  %42 = add nsw i32 %39, -1
  store i32 %42, ptr %21, align 4, !tbaa !4
  br label %lean_dec.exit28

43:                                               ; preds = %.thread
  %.not.i30 = icmp eq i32 %39, 0
  br i1 %.not.i30, label %lean_dec.exit28, label %44

44:                                               ; preds = %43
  tail call void @lean_dec_ref_cold(ptr noundef nonnull %21) #4
  br label %lean_dec.exit28

lean_dec.exit28:                                  ; preds = %lean_obj_tag.exit, %44, %43, %41
  br i1 %.not.i34, label %45, label %lean_dec.exit

45:                                               ; preds = %lean_dec.exit28
  %46 = load i32, ptr %10, align 4, !tbaa !4
  %47 = icmp sgt i32 %46, 1
  br i1 %47, label %48, label %50, !prof !11

48:                                               ; preds = %45
  %49 = add nsw i32 %46, -1
  store i32 %49, ptr %10, align 4, !tbaa !4
  br label %lean_dec.exit

50:                                               ; preds = %45
  %.not.i32 = icmp eq i32 %46, 0
  br i1 %.not.i32, label %lean_dec.exit, label %51

51:                                               ; preds = %50
  tail call void @lean_dec_ref_cold(ptr noundef nonnull %10) #4
  br label %lean_dec.exit

lean_dec.exit:                                    ; preds = %lean_dec.exit28, %48, %50, %51, %37
  %.227 = phi ptr [ %38, %37 ], [ %.02547, %51 ], [ %.02547, %50 ], [ %.02547, %48 ], [ %.02547, %lean_dec.exit28 ]
  %.not = icmp eq i64 %20, %4
  br i1 %.not, label %._crit_edge, label %8

._crit_edge:                                      ; preds = %lean_dec.exit, %6
  %.025.lcssa = phi ptr [ %5, %6 ], [ %.227, %lean_dec.exit ]
  ret ptr %.025.lcssa
}